Certificate:
    Data:
        Version: 3 (0x2)
        Serial Number: 1 (0x1)
        Signature Algorithm: sha256WithRSAEncryption
        Issuer: C=CN, ST=shanghai, L=shanghai, O=mds, OU=mds, CN=*.atzweb.com
        Validity
            Not Before: Aug 15 14:00:19 2020 GMT
            Not After : Aug 15 14:00:19 2021 GMT
        Subject: C=CN, ST=shanghai, O=mds, OU=mds, CN=*.atzweb.com
        Subject Public Key Info:
            Public Key Algorithm: rsaEncryption
                RSA Public-Key: (1024 bit)
                Modulus:
                    00:a7:c8:e7:0c:01:bb:b2:ee:1c:36:bb:f5:db:18:
                    19:4f:43:a7:9f:fb:0d:07:b5:0d:73:45:81:c5:12:
                    25:aa:b6:ca:9f:e9:68:d4:57:c9:f9:bf:7d:48:d9:
                    a8:c6:5f:15:39:62:e1:1e:c8:f2:39:3c:54:5d:4d:
                    ee:bd:3f:c0:52:eb:60:71:03:60:db:5a:94:1d:7d:
                    58:9d:43:7c:cf:01:b9:7e:c8:eb:5a:a4:60:dc:11:
                    03:81:b0:e9:e1:4e:b1:5b:af:01:d8:ca:12:1f:7f:
                    ab:cf:a6:6c:65:f7:cc:95:08:db:bb:05:0f:c4:3d:
                    a0:1a:05:7b:c9:4b:22:3a:13
                Exponent: 65537 (0x10001)
        X509v3 extensions:
            X509v3 Basic Constraints: 
                CA:FALSE
            Netscape Comment: 
                OpenSSL Generated Certificate
            X509v3 Subject Key Identifier: 
                2A:EC:A4:83:7D:50:B9:22:80:9B:97:AF:3B:74:D8:4D:2B:B2:22:78
            X509v3 Authority Key Identifier: 
                DirName:/C=CN/ST=shanghai/L=shanghai/O=mds/OU=mds/CN=*.atzweb.com
                serial:7E:4E:A7:64:02:E5:52:EB:AA:53:53:54:17:F3:6A:7F:82:61:57:34

    Signature Algorithm: sha256WithRSAEncryption
         77:f4:16:ac:11:62:94:55:64:b1:86:03:e0:b2:c0:d2:df:48:
         89:5d:4d:0b:68:f4:2f:0a:c5:9e:3e:34:b1:30:d4:24:09:65:
         15:c7:b2:8c:f6:4e:2f:81:97:7f:be:11:9a:62:05:99:ef:14:
         25:13:95:40:b4:d6:ca:7d:51:17:4c:b7:64:bd:74:e6:07:42:
         39:6d:0d:2b:08:03:e9:bb:47:1d:6b:84:d0:29:ad:60:c2:c7:
         79:eb:5a:a2:65:77:18:74:76:d0:8b:be:dd:e1:6c:38:e8:bf:
         02:76:61:c0:00:a6:20:55:c2:20:55:6d:a1:80:99:97:09:f4:
         a7:72:50:ce:f3:47:b4:b0:49:ca:ab:49:27:1b:6a:40:ed:c1:
         70:75:1b:0f:b6:d1:96:bd:f2:65:6d:4e:7d:4a:06:bf:00:9f:
         57:f9:e4:75:a6:3a:ca:f6:e6:7a:a7:12:80:9e:5c:25:9d:3e:
         4c:df:47:70:f8:83:80:d7:34:0c:70:4f:38:40:8e:96:26:47:
         d4:a2:ad:cb:6b:10:01:33:c6:b5:60:f2:5b:c4:27:d6:c0:43:
         52:39:ae:2d:93:57:f9:36:43:51:3e:36:c2:68:6e:86:34:b0:
         ef:c4:f5:25:49:49:ba:7a:aa:71:3d:86:33:7a:09:1b:2a:71:
         9a:d6:89:d5
-----BEGIN CERTIFICATE-----
MIIDnDCCAoSgAwIBAgIBATANBgkqhkiG9w0BAQsFADBmMQswCQYDVQQGEwJDTjER
MA8GA1UECAwIc2hhbmdoYWkxETAPBgNVBAcMCHNoYW5naGFpMQwwCgYDVQQKDANt
ZHMxDDAKBgNVBAsMA21kczEVMBMGA1UEAwwMKi5hdHp3ZWIuY29tMB4XDTIwMDgx
NTE0MDAxOVoXDTIxMDgxNTE0MDAxOVowUzELMAkGA1UEBhMCQ04xETAPBgNVBAgM
CHNoYW5naGFpMQwwCgYDVQQKDANtZHMxDDAKBgNVBAsMA21kczEVMBMGA1UEAwwM
Ki5hdHp3ZWIuY29tMIGfMA0GCSqGSIb3DQEBAQUAA4GNADCBiQKBgQCnyOcMAbuy
7hw2u/XbGBlPQ6ef+w0HtQ1zRYHFEiWqtsqf6WjUV8n5v31I2ajGXxU5YuEeyPI5
PFRdTe69P8BS62BxA2DbWpQdfVidQ3zPAbl+yOtapGDcEQOBsOnhTrFbrwHYyhIf
f6vPpmxl98yVCNu7BQ/EPaAaBXvJSyI6EwIDAQABo4HrMIHoMAkGA1UdEwQCMAAw
LAYJYIZIAYb4QgENBB8WHU9wZW5TU0wgR2VuZXJhdGVkIENlcnRpZmljYXRlMB0G
A1UdDgQWBBQq7KSDfVC5IoCbl687dNhNK7IieDCBjQYDVR0jBIGFMIGCoWqkaDBm
MQswCQYDVQQGEwJDTjERMA8GA1UECAwIc2hhbmdoYWkxETAPBgNVBAcMCHNoYW5n
aGFpMQwwCgYDVQQKDANtZHMxDDAKBgNVBAsMA21kczEVMBMGA1UEAwwMKi5hdHp3
ZWIuY29tghR+TqdkAuVS66pTU1QX82p/gmFXNDANBgkqhkiG9w0BAQsFAAOCAQEA
d/QWrBFilFVksYYD4LLA0t9IiV1NC2j0LwrFnj40sTDUJAllFceyjPZOL4GXf74R
mmIFme8UJROVQLTWyn1RF0y3ZL105gdCOW0NKwgD6btHHWuE0CmtYMLHeetaomV3
GHR20Iu+3eFsOOi/AnZhwACmIFXCIFVtoYCZlwn0p3JQzvNHtLBJyqtJJxtqQO3B
cHUbD7bRlr3yZW1OfUoGvwCfV/nkdaY6yvbmeqcSgJ5cJZ0+TN9HcPiDgNc0DHBP
OECOliZH1KKty2sQATPGtWDyW8Qn1sBDUjmuLZNX+TZDUT42wmhuhjSw78T1JUlJ
unqqcT2GM3oJGypxmtaJ1Q==
-----END CERTIFICATE-----
