Certificate:
    Data:
        Version: 3 (0x2)
        Serial Number: 2 (0x2)
        Signature Algorithm: sha256WithRSAEncryption
        Issuer: C=CN, ST=shanghai, L=shanghai, O=mds, OU=mds, CN=*.atzweb.com
        Validity
            Not Before: Aug 15 14:02:45 2020 GMT
            Not After : Aug 15 14:02:45 2021 GMT
        Subject: C=CN, ST=shanghai, O=mds, OU=mds, CN=client1.atzweb.com
        Subject Public Key Info:
            Public Key Algorithm: rsaEncryption
                RSA Public-Key: (1024 bit)
                Modulus:
                    00:af:54:e3:e5:e4:fe:2e:66:5a:4e:81:ea:21:e7:
                    95:f2:11:ca:71:02:30:90:38:05:87:fd:dc:90:a4:
                    a6:31:30:a1:2c:e1:53:27:ae:cc:ff:c0:62:27:8f:
                    bc:46:4f:f7:08:96:ea:d9:c1:cd:ea:4e:a6:8c:34:
                    12:b3:1c:6a:dc:75:34:17:0e:f0:65:ec:48:ac:d9:
                    34:69:db:22:0e:c7:07:58:57:97:9e:8b:44:30:1d:
                    68:ea:6e:30:88:c6:20:86:0f:61:c0:8f:4f:3e:ef:
                    3f:81:c1:f9:90:0c:47:00:8a:ba:eb:56:2b:3b:21:
                    8c:e2:5f:6a:ab:59:2c:61:d3
                Exponent: 65537 (0x10001)
        X509v3 extensions:
            X509v3 Basic Constraints: 
                CA:FALSE
            Netscape Comment: 
                OpenSSL Generated Certificate
            X509v3 Subject Key Identifier: 
                8A:D6:BA:4B:0A:A6:9B:4C:02:27:A7:8B:F8:58:7B:44:56:31:37:B2
            X509v3 Authority Key Identifier: 
                DirName:/C=CN/ST=shanghai/L=shanghai/O=mds/OU=mds/CN=*.atzweb.com
                serial:7E:4E:A7:64:02:E5:52:EB:AA:53:53:54:17:F3:6A:7F:82:61:57:34

    Signature Algorithm: sha256WithRSAEncryption
         4b:4b:2b:bb:af:d2:7d:ad:c4:9e:fe:9f:7f:e0:4d:01:76:97:
         21:7d:45:59:9a:65:68:18:2f:79:48:f1:57:9c:44:0e:d4:3c:
         17:f0:96:9a:27:f2:9d:da:ae:25:1a:17:1c:2c:0d:c6:d3:c6:
         c5:46:d6:be:3e:b8:75:66:63:0e:08:c7:1b:8f:ef:7e:49:eb:
         64:ab:5e:94:b5:c1:49:28:7f:6b:86:04:3e:fa:54:e3:64:fb:
         30:48:a3:4a:8c:73:f5:d3:37:f7:cb:65:01:b1:4b:46:d2:21:
         69:e1:d1:b8:70:36:80:ad:8b:6e:e9:11:90:13:56:71:c0:5e:
         92:d9:fa:20:a2:a1:30:12:e2:f5:6e:97:e0:cb:b9:a7:29:64:
         ca:6f:4f:b3:59:c2:df:eb:2c:7c:c3:e4:cd:96:f7:5d:41:be:
         3f:52:02:67:78:70:4e:32:c2:27:93:0c:52:1d:6d:c7:54:d3:
         15:5e:23:38:15:ec:59:ab:cd:2e:9a:a2:f6:eb:a8:03:60:34:
         60:e9:cc:59:bb:38:77:32:5e:02:42:a0:d2:26:5f:34:e5:db:
         ad:de:1a:31:07:25:4f:15:66:51:2a:b6:c9:f2:55:e2:07:2d:
         dc:55:da:c7:61:d1:6e:d9:04:e1:44:ee:5b:5e:7a:88:73:e6:
         3b:73:4d:b8
-----BEGIN CERTIFICATE-----
MIIDojCCAoqgAwIBAgIBAjANBgkqhkiG9w0BAQsFADBmMQswCQYDVQQGEwJDTjER
MA8GA1UECAwIc2hhbmdoYWkxETAPBgNVBAcMCHNoYW5naGFpMQwwCgYDVQQKDANt
ZHMxDDAKBgNVBAsMA21kczEVMBMGA1UEAwwMKi5hdHp3ZWIuY29tMB4XDTIwMDgx
NTE0MDI0NVoXDTIxMDgxNTE0MDI0NVowWTELMAkGA1UEBhMCQ04xETAPBgNVBAgM
CHNoYW5naGFpMQwwCgYDVQQKDANtZHMxDDAKBgNVBAsMA21kczEbMBkGA1UEAwwS
Y2xpZW50MS5hdHp3ZWIuY29tMIGfMA0GCSqGSIb3DQEBAQUAA4GNADCBiQKBgQCv
VOPl5P4uZlpOgeoh55XyEcpxAjCQOAWH/dyQpKYxMKEs4VMnrsz/wGInj7xGT/cI
lurZwc3qTqaMNBKzHGrcdTQXDvBl7Eis2TRp2yIOxwdYV5eei0QwHWjqbjCIxiCG
D2HAj08+7z+BwfmQDEcAirrrVis7IYziX2qrWSxh0wIDAQABo4HrMIHoMAkGA1Ud
EwQCMAAwLAYJYIZIAYb4QgENBB8WHU9wZW5TU0wgR2VuZXJhdGVkIENlcnRpZmlj
YXRlMB0GA1UdDgQWBBSK1rpLCqabTAInp4v4WHtEVjE3sjCBjQYDVR0jBIGFMIGC
oWqkaDBmMQswCQYDVQQGEwJDTjERMA8GA1UECAwIc2hhbmdoYWkxETAPBgNVBAcM
CHNoYW5naGFpMQwwCgYDVQQKDANtZHMxDDAKBgNVBAsMA21kczEVMBMGA1UEAwwM
Ki5hdHp3ZWIuY29tghR+TqdkAuVS66pTU1QX82p/gmFXNDANBgkqhkiG9w0BAQsF
AAOCAQEAS0sru6/Sfa3Env6ff+BNAXaXIX1FWZplaBgveUjxV5xEDtQ8F/CWmify
ndquJRoXHCwNxtPGxUbWvj64dWZjDgjHG4/vfknrZKtelLXBSSh/a4YEPvpU42T7
MEijSoxz9dM398tlAbFLRtIhaeHRuHA2gK2LbukRkBNWccBektn6IKKhMBLi9W6X
4Mu5pylkym9Ps1nC3+ssfMPkzZb3XUG+P1ICZ3hwTjLCJ5MMUh1tx1TTFV4jOBXs
WavNLpqi9uuoA2A0YOnMWbs4dzJeAkKg0iZfNOXbrd4aMQclTxVmUSq2yfJV4gct
3FXax2HRbtkE4UTuW156iHPmO3NNuA==
-----END CERTIFICATE-----
